Certificate:
    Data:
        Version: 3 (0x2)
        Serial Number: 1 (0x1)
    Signature Algorithm: ecdsa-with-SHA256
        Issuer: CN=Smart Autonomous Wifi RootCA
        Validity
            Not Before: Jan  4 20:21:46 2019 GMT
            Not After : Apr  5 20:21:46 2037 GMT
        Subject: CN=Smart Autonomous Wifi
        Subject Public Key Info:
            Public Key Algorithm: id-ecPublicKey
                Public-Key: (256 bit)
                pub: 
                    04:97:b7:f5:94:b2:be:fa:6e:5b:06:17:2c:ca:ac:
                    85:c1:82:9e:a1:d9:9f:84:ac:0c:d4:b0:d9:07:c9:
                    2c:ce:b6:7b:8f:15:1e:69:c9:6a:78:88:27:cc:ee:
                    5a:67:4c:06:8c:14:72:d4:f0:2d:bd:a4:e5:45:7f:
                    07:e3:f9:98:7a
                Field Type: prime-field
                Prime:
                    00:ff:ff:ff:ff:ff:ff:ff:ff:ff:ff:ff:ff:ff:ff:
                    ff:ff:ff:ff:ff:ff:ff:ff:ff:ff:ff:ff:ff:fe:ff:
                    ff:fc:2f
                A:    0
                B:    7 (0x7)
                Generator (uncompressed):
                    04:79:be:66:7e:f9:dc:bb:ac:55:a0:62:95:ce:87:
                    0b:07:02:9b:fc:db:2d:ce:28:d9:59:f2:81:5b:16:
                    f8:17:98:48:3a:da:77:26:a3:c4:65:5d:a4:fb:fc:
                    0e:11:08:a8:fd:17:b4:48:a6:85:54:19:9c:47:d0:
                    8f:fb:10:d4:b8
                Order: 
                    00:ff:ff:ff:ff:ff:ff:ff:ff:ff:ff:ff:ff:ff:ff:
                    ff:fe:ba:ae:dc:e6:af:48:a0:3b:bf:d2:5e:8c:d0:
                    36:41:41
                Cofactor:  1 (0x1)
        X509v3 extensions:
            X509v3 Subject Key Identifier: 
                CA:42:90:44:27:3D:89:F2:08:8F:D7:1C:53:99:4F:21:AD:93:C5:CD
            X509v3 Authority Key Identifier: 
                keyid:19:83:4F:BE:5E:B2:22:82:C9:D8:28:77:03:DF:75:5B:08:36:39:08

            X509v3 Basic Constraints: 
                CA:TRUE
    Signature Algorithm: ecdsa-with-SHA256
         30:45:02:21:00:c6:da:4e:37:32:6b:47:2f:21:5f:4a:8d:29:
         bf:93:76:87:05:89:46:84:3d:cf:7d:bc:f2:7d:32:fb:b9:5e:
         8f:02:20:38:58:83:4d:4f:c0:9c:1a:3c:65:e7:2d:00:f2:67:
         35:60:e2:fa:07:e6:a3:92:f5:65:2e:f5:94:fd:76:bf:b7
-----BEGIN CERTIFICATE-----
MIICIzCCAcmgAwIBAgIBATAKBggqhkjOPQQDAjAnMSUwIwYDVQQDDBxTbWFydCBB
dXRvbm9tb3VzIFdpZmkgUm9vdENBMB4XDTE5MDEwNDIwMjE0NloXDTM3MDQwNTIw
MjE0NlowIDEeMBwGA1UEAwwVU21hcnQgQXV0b25vbW91cyBXaWZpMIH1MIGuBgcq
hkjOPQIBMIGiAgEBMCwGByqGSM49AQECIQD/////////////////////////////
///////+///8LzAGBAEABAEHBEEEeb5mfvncu6xVoGKVzocLBwKb/NstzijZWfKB
Wxb4F5hIOtp3JqPEZV2k+/wOEQio/Re0SKaFVBmcR9CP+xDUuAIhAP//////////
//////////66rtzmr0igO7/SXozQNkFBAgEBA0IABJe39ZSyvvpuWwYXLMqshcGC
nqHZn4SsDNSw2QfJLM62e48VHmnJaniIJ8zuWmdMBowUctTwLb2k5UV/B+P5mHqj
UDBOMB0GA1UdDgQWBBTKQpBEJz2J8giP1xxTmU8hrZPFzTAfBgNVHSMEGDAWgBQZ
g0++XrIigsnYKHcD33VbCDY5CDAMBgNVHRMEBTADAQH/MAoGCCqGSM49BAMCA0gA
MEUCIQDG2k43MmtHLyFfSo0pv5N2hwWJRoQ9z3288n0y+7lejwIgOFiDTU/AnBo8
ZectAPJnNWDi+gfmo5L1ZS71lP12v7c=
-----END CERTIFICATE-----
-----BEGIN PRIVATE KEY-----
MIIBIwIBADCBrgYHKoZIzj0CATCBogIBATAsBgcqhkjOPQEBAiEA////////////
/////////////////////////v///C8wBgQBAAQBBwRBBHm+Zn753LusVaBilc6H
CwcCm/zbLc4o2VnygVsW+BeYSDradyajxGVdpPv8DhEIqP0XtEimhVQZnEfQj/sQ
1LgCIQD////////////////////+uq7c5q9IoDu/0l6M0DZBQQIBAQRtMGsCAQEE
ICnJLS60GqZjIgEFpwhHfChPrMOXa9fBuqS347gDU+7LoUQDQgAEl7f1lLK++m5b
BhcsyqyFwYKeodmfhKwM1LDZB8kszrZ7jxUeaclqeIgnzO5aZ0wGjBRy1PAtvaTl
RX8H4/mYeg==
-----END PRIVATE KEY-----
